; Function Attrs: mustprogress uwtable
define void @_ZN6icu_7735SimpleFilteredSentenceBreakIterator10resetStateER10UErrorCode(ptr noundef nonnull align 8 captures(none) dereferenceable(56) %0, ptr noundef nonnull align 4 dereferenceable(4) %1) local_unnamed_addr #2 align 2 {
  %3 = getelementptr inbounds nuw i8, ptr %0, i64 48
  %4 = getelementptr inbounds nuw i8, ptr %0, i64 40
  %5 = load ptr, ptr %4, align 8, !tbaa !23
  %6 = load ptr, ptr %3, align 8, !tbaa !24
  store ptr null, ptr %3, align 8, !tbaa !24
  %7 = load ptr, ptr %5, align 8, !tbaa !3
  %8 = getelementptr inbounds nuw i8, ptr %7, i64 48
  %9 = load ptr, ptr %8, align 8
  %10 = tail call noundef ptr %9(ptr noundef nonnull align 8 dereferenceable(32) %5, ptr noundef %6, ptr noundef nonnull align 4 dereferenceable(4) %1)
  %11 = load ptr, ptr %3, align 8, !tbaa !24
  %.not.i = icmp eq ptr %11, null
  br i1 %.not.i, label %_ZN6icu_778internal16LocalOpenPointerI5UTextXadL_Z14utext_close_77EEE12adoptInsteadEPS2_.exit, label %12

12:                                               ; preds = %2
  %13 = tail call noundef ptr @utext_close_77(ptr noundef nonnull %11)
  br label %_ZN6icu_778internal16LocalOpenPointerI5UTextXadL_Z14utext_close_77EEE12adoptInsteadEPS2_.exit

_ZN6icu_778internal16LocalOpenPointerI5UTextXadL_Z14utext_close_77EEE12adoptInsteadEPS2_.exit: ; preds = %2, %12
  store ptr %10, ptr %3, align 8, !tbaa !24
  ret void
}